target datalayout = "e-m:e-p270:32:32-p271:32:32-p272:64:64-i64:64-i128:128-f80:128-n8:16:32:64-S128"
target triple = "x86_64-pc-linux-gnu"

%struct.idea_key_st = type { [9 x [6 x i32]] }
%struct.prov_idea_ctx_st = type { %struct.prov_cipher_ctx_st, %union.anon.0 }
%struct.prov_cipher_ctx_st = type { [16 x i8], [16 x i8], [16 x i8], ptr, %union.anon, i32, i64, i64, i64, i64, i32, i8, i32, ptr, i32, i64, i32, i64, i32, ptr, ptr, ptr }
%union.anon = type { ptr }
%union.anon.0 = type { double, [208 x i8] }

; Function Attrs: nounwind uwtable
define internal i32 @cipher_hw_idea_initkey(ptr noundef %0, ptr noundef %1, i64 noundef %2) #0 {
  %4 = alloca ptr, align 8
  %5 = alloca ptr, align 8
  %6 = alloca i64, align 8
  %7 = alloca ptr, align 8
  %8 = alloca ptr, align 8
  %9 = alloca %struct.idea_key_st, align 4
  store ptr %0, ptr %4, align 8, !tbaa !7
  store ptr %1, ptr %5, align 8, !tbaa !10
  store i64 %2, ptr %6, align 8, !tbaa !3
  call void @llvm.lifetime.start.p0(i64 8, ptr %7) #3
  %10 = load ptr, ptr %4, align 8, !tbaa !7
  store ptr %10, ptr %7, align 8, !tbaa !12
  call void @llvm.lifetime.start.p0(i64 8, ptr %8) #3
  %11 = load ptr, ptr %7, align 8, !tbaa !12
  %12 = getelementptr inbounds nuw %struct.prov_idea_ctx_st, ptr %11, i32 0, i32 1
  store ptr %12, ptr %8, align 8, !tbaa !14
  %13 = load ptr, ptr %4, align 8, !tbaa !7
  %14 = getelementptr inbounds nuw %struct.prov_cipher_ctx_st, ptr %13, i32 0, i32 11
  %15 = load i8, ptr %14, align 4
  %16 = lshr i8 %15, 1
  %17 = and i8 %16, 1
  %18 = zext i8 %17 to i32
  %19 = icmp ne i32 %18, 0
  br i1 %19, label %30, label %20

20:                                               ; preds = %3
  %21 = load ptr, ptr %4, align 8, !tbaa !7
  %22 = getelementptr inbounds nuw %struct.prov_cipher_ctx_st, ptr %21, i32 0, i32 5
  %23 = load i32, ptr %22, align 8, !tbaa !16
  %24 = icmp eq i32 %23, 4
  br i1 %24, label %30, label %25

25:                                               ; preds = %20
  %26 = load ptr, ptr %4, align 8, !tbaa !7
  %27 = getelementptr inbounds nuw %struct.prov_cipher_ctx_st, ptr %26, i32 0, i32 5
  %28 = load i32, ptr %27, align 8, !tbaa !16
  %29 = icmp eq i32 %28, 3
  br i1 %29, label %30, label %33

30:                                               ; preds = %25, %20, %3
  %31 = load ptr, ptr %5, align 8, !tbaa !10
  %32 = load ptr, ptr %8, align 8, !tbaa !14
  call void @IDEA_set_encrypt_key(ptr noundef %31, ptr noundef %32)
  br label %36

33:                                               ; preds = %25
  call void @llvm.lifetime.start.p0(i64 216, ptr %9) #3
  %34 = load ptr, ptr %5, align 8, !tbaa !10
  call void @IDEA_set_encrypt_key(ptr noundef %34, ptr noundef %9)
  %35 = load ptr, ptr %8, align 8, !tbaa !14
  call void @IDEA_set_decrypt_key(ptr noundef %9, ptr noundef %35)
  call void @OPENSSL_cleanse(ptr noundef %9, i64 noundef 216)
  call void @llvm.lifetime.end.p0(i64 216, ptr %9) #3
  br label %36

36:                                               ; preds = %33, %30
  call void @llvm.lifetime.end.p0(i64 8, ptr %8) #3
  call void @llvm.lifetime.end.p0(i64 8, ptr %7) #3
  ret i32 1
}