; Function Attrs: nounwind uwtable
define internal noundef i32 @cipher_hw_idea_initkey(ptr noundef %0, ptr noundef %1, i64 %2) #1 {
  %4 = alloca %struct.idea_key_st, align 4
  %5 = getelementptr inbounds nuw i8, ptr %0, i64 192
  %6 = getelementptr inbounds nuw i8, ptr %0, i64 108
  %7 = load i8, ptr %6, align 4
  %8 = and i8 %7, 2
  %.not = icmp eq i8 %8, 0
  br i1 %.not, label %9, label %12

9:                                                ; preds = %3
  %10 = getelementptr inbounds nuw i8, ptr %0, i64 64
  %11 = load i32, ptr %10, align 8, !tbaa !3
  %.off = add i32 %11, -3
  %switch = icmp ult i32 %.off, 2
  br i1 %switch, label %12, label %13

12:                                               ; preds = %9, %3
  tail call void @IDEA_set_encrypt_key(ptr noundef %1, ptr noundef nonnull %5) #5
  br label %14

13:                                               ; preds = %9
  call void @llvm.lifetime.start.p0(i64 216, ptr nonnull %4) #5
  call void @IDEA_set_encrypt_key(ptr noundef %1, ptr noundef nonnull %4) #5
  call void @IDEA_set_decrypt_key(ptr noundef nonnull %4, ptr noundef nonnull %5) #5
  call void @OPENSSL_cleanse(ptr noundef nonnull %4, i64 noundef 216) #5
  call void @llvm.lifetime.end.p0(i64 216, ptr nonnull %4) #5
  br label %14

14:                                               ; preds = %13, %12
  ret i32 1
}